; Function Attrs: nofree norecurse nosync nounwind memory(read, argmem: readwrite, inaccessiblemem: none) uwtable
define hidden noundef i32 @lxb_html_token_data_split_ws_begin(ptr nocapture noundef %0, ptr nocapture noundef %1) local_unnamed_addr #4 {
  tail call void @llvm.memcpy.p0.p0.i64(ptr noundef nonnull align 8 dereferenceable(96) %1, ptr noundef nonnull align 8 dereferenceable(96) %0, i64 96, i1 false)
  %3 = getelementptr inbounds i8, ptr %0, i64 32
  %4 = load ptr, ptr %3, align 8
  %5 = ptrtoint ptr %4 to i64
  %6 = getelementptr inbounds i8, ptr %0, i64 40
  %7 = load ptr, ptr %6, align 8
  %8 = icmp ult ptr %4, %7
  br i1 %8, label %.lr.ph.preheader.i, label %lxb_html_token_data_skip_ws_begin.exit

.lr.ph.preheader.i:                               ; preds = %2
  %9 = ptrtoint ptr %7 to i64
  %10 = sub i64 %9, %5
  %scevgep.i = getelementptr i8, ptr %4, i64 %10
  br label %.lr.ph.i

.lr.ph.i:                                         ; preds = %14, %.lr.ph.preheader.i
  %.01619.i = phi ptr [ %15, %14 ], [ %4, %.lr.ph.preheader.i ]
  %11 = load i8, ptr %.01619.i, align 1
  switch i8 %11, label %12 [
    i8 9, label %14
    i8 10, label %14
    i8 13, label %14
    i8 32, label %14
  ]

12:                                               ; preds = %.lr.ph.i
  %13 = ptrtoint ptr %.01619.i to i64
  br label %lxb_html_token_data_skip_ws_begin.exit

14:                                               ; preds = %.lr.ph.i, %.lr.ph.i, %.lr.ph.i, %.lr.ph.i
  %15 = getelementptr inbounds i8, ptr %.01619.i, i64 1
  %exitcond.not.i = icmp eq ptr %15, %7
  br i1 %exitcond.not.i, label %lxb_html_token_data_skip_ws_begin.exit, label %.lr.ph.i

lxb_html_token_data_skip_ws_begin.exit:           ; preds = %14, %2, %12
  %.pre-phi.sink.i = phi i64 [ %13, %12 ], [ %5, %2 ], [ %9, %14 ]
  %.01618.i = phi ptr [ %.01619.i, %12 ], [ %4, %2 ], [ %scevgep.i, %14 ]
  %16 = sub i64 %.pre-phi.sink.i, %5
  %17 = load ptr, ptr %0, align 8
  %18 = getelementptr inbounds i8, ptr %17, i64 %16
  store ptr %18, ptr %0, align 8
  store ptr %.01618.i, ptr %3, align 8
  %19 = icmp eq ptr %.01618.i, %7
  br i1 %19, label %29, label %20

20:                                               ; preds = %lxb_html_token_data_skip_ws_begin.exit
  %21 = getelementptr inbounds i8, ptr %1, i64 32
  %22 = load ptr, ptr %21, align 8
  %23 = icmp eq ptr %.01618.i, %22
  br i1 %23, label %24, label %25

24:                                               ; preds = %20
  tail call void @llvm.memset.p0.i64(ptr noundef nonnull align 8 dereferenceable(96) %1, i8 0, i64 96, i1 false)
  br label %29

25:                                               ; preds = %20
  %26 = getelementptr inbounds i8, ptr %1, i64 8
  store ptr %18, ptr %26, align 8
  %27 = load ptr, ptr %3, align 8
  %28 = getelementptr inbounds i8, ptr %1, i64 40
  store ptr %27, ptr %28, align 8
  br label %29

29:                                               ; preds = %lxb_html_token_data_skip_ws_begin.exit, %25, %24
  ret i32 0
}